; Function Attrs: mustprogress nofree norecurse nosync nounwind willreturn memory(argmem: read) uwtable
define hidden i32 @av1_get_sb_cols_in_tile(ptr nocapture noundef readonly %0, ptr nocapture noundef readonly byval(%struct.TileInfo) align 8 %1) local_unnamed_addr #2 {
  %3 = getelementptr inbounds nuw i8, ptr %1, i64 12
  %4 = load i32, ptr %3, align 4
  %5 = getelementptr inbounds nuw i8, ptr %1, i64 8
  %6 = load i32, ptr %5, align 8
  %7 = sub i32 %4, %6
  %8 = getelementptr inbounds i8, ptr %0, i64 25220
  %9 = load i32, ptr %8, align 4
  %notmask = shl nsw i32 -1, %9
  %10 = xor i32 %notmask, -1
  %11 = add nsw i32 %7, %10
  %12 = and i32 %11, %notmask
  %13 = ashr i32 %12, %9
  ret i32 %13
}